; Function Attrs: mustprogress uwtable
define void @_ZNK6icu_7517RuleBasedCollator9getLocaleE18ULocDataLocaleTypeR10UErrorCode(ptr noalias sret(%"class.icu_75::Locale") align 8 %agg.result, ptr noundef nonnull align 8 dereferenceable(272) %this, i32 noundef %type, ptr nocapture noundef nonnull align 4 dereferenceable(4) %errorCode) unnamed_addr #1 align 2 {
entry:
  %0 = load i32, ptr %errorCode, align 4
  %cmp.i = icmp slt i32 %0, 1
  br i1 %cmp.i, label %if.end, label %if.then

if.then:                                          ; preds = %entry
  %call2 = tail call noundef nonnull align 8 dereferenceable(217) ptr @_ZN6icu_756Locale7getRootEv()
  br label %return

if.end:                                           ; preds = %entry
  switch i32 %type, label %sw.default [
    i32 0, label %sw.bb
    i32 1, label %sw.bb4
  ]

sw.bb:                                            ; preds = %if.end
  %actualLocaleIsSameAsValid = getelementptr inbounds i8, ptr %this, i64 268
  %1 = load i8, ptr %actualLocaleIsSameAsValid, align 4
  %tobool3.not = icmp eq i8 %1, 0
  %validLocale = getelementptr inbounds i8, ptr %this, i64 40
  %tailoring = getelementptr inbounds i8, ptr %this, i64 24
  %2 = load ptr, ptr %tailoring, align 8
  %actualLocale = getelementptr inbounds i8, ptr %2, i64 104
  %cond-lvalue = select i1 %tobool3.not, ptr %actualLocale, ptr %validLocale
  br label %return

sw.bb4:                                           ; preds = %if.end
  %validLocale5 = getelementptr inbounds i8, ptr %this, i64 40
  br label %return

sw.default:                                       ; preds = %if.end
  store i32 1, ptr %errorCode, align 4
  %call7 = tail call noundef nonnull align 8 dereferenceable(217) ptr @_ZN6icu_756Locale7getRootEv()
  br label %return

return:                                           ; preds = %sw.default, %sw.bb4, %sw.bb, %if.then
  %call7.sink = phi ptr [ %call7, %sw.default ], [ %validLocale5, %sw.bb4 ], [ %cond-lvalue, %sw.bb ], [ %call2, %if.then ]
  tail call void @_ZN6icu_756LocaleC1ERKS0_(ptr noundef nonnull align 8 dereferenceable(217) %agg.result, ptr noundef nonnull align 8 dereferenceable(217) %call7.sink)
  ret void
}